; Function Attrs: nounwind uwtable
define internal fastcc range(i32 -2147483648, 2) i32 @r_remove_suffix(ptr noundef initializes((24, 28)) %0) unnamed_addr #0 {
  %2 = getelementptr inbounds nuw i8, ptr %0, i64 8
  %3 = load i32, ptr %2, align 8
  %4 = getelementptr inbounds nuw i8, ptr %0, i64 24
  store i32 %3, ptr %4, align 8
  %5 = getelementptr inbounds nuw i8, ptr %0, i64 16
  %6 = load i32, ptr %5, align 8
  %.not = icmp sgt i32 %3, %6
  br i1 %.not, label %7, label %26

7:                                                ; preds = %1
  %8 = load ptr, ptr %0, align 8
  %9 = sext i32 %3 to i64
  %10 = getelementptr i8, ptr %8, i64 %9
  %11 = getelementptr i8, ptr %10, i64 -1
  %12 = load i8, ptr %11, align 1
  switch i8 %12, label %26 [
    i8 105, label %13
    i8 110, label %13
  ]

13:                                               ; preds = %7, %7
  %14 = tail call i32 @find_among_b(ptr noundef nonnull %0, ptr noundef nonnull @a_2, i32 noundef 3) #4
  %.not21 = icmp eq i32 %14, 0
  br i1 %.not21, label %26, label %15

15:                                               ; preds = %13
  %16 = load i32, ptr %2, align 8
  %17 = getelementptr inbounds nuw i8, ptr %0, i64 20
  store i32 %16, ptr %17, align 4
  %18 = tail call i32 @slice_del(ptr noundef nonnull %0) #4
  %19 = icmp sgt i32 %18, -1
  br i1 %19, label %20, label %26

20:                                               ; preds = %15
  %21 = getelementptr inbounds nuw i8, ptr %0, i64 40
  %22 = load ptr, ptr %21, align 8
  %23 = getelementptr inbounds nuw i8, ptr %22, i64 4
  %24 = load i32, ptr %23, align 4
  %25 = add i32 %24, -1
  store i32 %25, ptr %23, align 4
  br label %26

26:                                               ; preds = %15, %13, %1, %7, %20
  %.016 = phi i32 [ %18, %15 ], [ 1, %20 ], [ 0, %7 ], [ 0, %1 ], [ 0, %13 ]
  ret i32 %.016
}